target datalayout = "e-m:e-p270:32:32-p271:32:32-p272:64:64-i64:64-i128:128-f80:128-n8:16:32:64-S128"
target triple = "x86_64-pc-linux-gnu"

@hf_link_type = internal global i32 0, align 4

; Function Attrs: null_pointer_is_valid sspstrong uwtable
define internal signext i16 @dissect_mih_list(ptr noundef %0, i16 noundef signext %1, ptr noundef %2, ptr noundef %3) #0 {
  %5 = alloca ptr, align 8
  %6 = alloca i16, align 2
  %7 = alloca ptr, align 8
  %8 = alloca ptr, align 8
  %9 = alloca i8, align 1
  %10 = alloca i8, align 1
  store ptr %0, ptr %5, align 8
  store i16 %1, ptr %6, align 2
  store ptr %2, ptr %7, align 8
  store ptr %3, ptr %8, align 8
  call void @llvm.lifetime.start.p0(i64 1, ptr %9) #5
  store i8 0, ptr %9, align 1
  call void @llvm.lifetime.start.p0(i64 1, ptr %10) #5
  %11 = load ptr, ptr %5, align 8
  %12 = load i16, ptr %6, align 2
  %13 = sext i16 %12 to i32
  %14 = call zeroext i8 @tvb_get_uint8(ptr noundef %11, i32 noundef %13)
  store i8 %14, ptr %10, align 1
  %15 = load i16, ptr %6, align 2
  %16 = add i16 %15, 1
  store i16 %16, ptr %6, align 2
  store i8 0, ptr %9, align 1
  br label %17

17:                                               ; preds = %29, %4
  %18 = load i8, ptr %9, align 1
  %19 = zext i8 %18 to i32
  %20 = load i8, ptr %10, align 1
  %21 = zext i8 %20 to i32
  %22 = icmp slt i32 %19, %21
  br i1 %22, label %23, label %32

23:                                               ; preds = %17
  %24 = load ptr, ptr %8, align 8
  %25 = load ptr, ptr %5, align 8
  %26 = load i16, ptr %6, align 2
  %27 = load ptr, ptr %7, align 8
  %28 = call signext i16 %24(ptr noundef %25, i16 noundef signext %26, ptr noundef %27)
  store i16 %28, ptr %6, align 2
  br label %29

29:                                               ; preds = %23
  %30 = load i8, ptr %9, align 1
  %31 = add i8 %30, 1
  store i8 %31, ptr %9, align 1
  br label %17, !llvm.loop !13

32:                                               ; preds = %17
  %33 = load i16, ptr %6, align 2
  call void @llvm.lifetime.end.p0(i64 1, ptr %10) #5
  call void @llvm.lifetime.end.p0(i64 1, ptr %9) #5
  ret i16 %33
}

; Function Attrs: null_pointer_is_valid sspstrong uwtable
define internal signext i16 @dissect_link_id(ptr noundef %0, i16 noundef signext %1, ptr noundef %2) #0 {
  %4 = alloca ptr, align 8
  %5 = alloca i16, align 2
  %6 = alloca ptr, align 8
  %7 = alloca i16, align 2
  store ptr %0, ptr %4, align 8
  store i16 %1, ptr %5, align 2
  store ptr %2, ptr %6, align 8
  call void @llvm.lifetime.start.p0(i64 2, ptr %7) #5
  store i16 0, ptr %7, align 2
  %8 = load ptr, ptr %6, align 8
  %9 = load i32, ptr @hf_link_type, align 4
  %10 = load ptr, ptr %4, align 8
  %11 = load i16, ptr %5, align 2
  %12 = sext i16 %11 to i32
  %13 = call ptr @proto_tree_add_item(ptr noundef %8, i32 noundef %9, ptr noundef %10, i32 noundef %12, i32 noundef 1, i32 noundef 0)
  %14 = load ptr, ptr %4, align 8
  %15 = load i16, ptr %5, align 2
  %16 = sext i16 %15 to i32
  %17 = add i32 %16, 1
  %18 = trunc i32 %17 to i16
  %19 = load ptr, ptr %6, align 8
  %20 = call signext i16 @dissect_link_addr(ptr noundef %14, i16 noundef signext %18, ptr noundef %19)
  store i16 %20, ptr %7, align 2
  %21 = load i16, ptr %7, align 2
  call void @llvm.lifetime.end.p0(i64 2, ptr %7) #5
  ret i16 %21
}

; Function Attrs: null_pointer_is_valid sspstrong uwtable
define internal signext i16 @dissect_status_list(ptr noundef %0, i16 noundef signext %1, ptr noundef %2) #0 {
  %4 = alloca ptr, align 8
  %5 = alloca i16, align 2
  %6 = alloca ptr, align 8
  store ptr %0, ptr %4, align 8
  store i16 %1, ptr %5, align 2
  store ptr %2, ptr %6, align 8
  %7 = load ptr, ptr %4, align 8
  %8 = load i16, ptr %5, align 2
  %9 = load ptr, ptr %6, align 8
  %10 = call signext i16 @dissect_link_id(ptr noundef %7, i16 noundef signext %8, ptr noundef %9)
  store i16 %10, ptr %5, align 2
  %11 = load ptr, ptr %4, align 8
  %12 = load i16, ptr %5, align 2
  %13 = load ptr, ptr %6, align 8
  %14 = call signext i16 @dissect_mih_list(ptr noundef %11, i16 noundef signext %12, ptr noundef %13, ptr noundef @dissect_link_states_rsp)
  store i16 %14, ptr %5, align 2
  %15 = load ptr, ptr %4, align 8
  %16 = load i16, ptr %5, align 2
  %17 = load ptr, ptr %6, align 8
  %18 = call signext i16 @dissect_mih_list(ptr noundef %15, i16 noundef signext %16, ptr noundef %17, ptr noundef @dissect_link_param)
  store i16 %18, ptr %5, align 2
  %19 = load ptr, ptr %4, align 8
  %20 = load i16, ptr %5, align 2
  %21 = load ptr, ptr %6, align 8
  %22 = call signext i16 @dissect_mih_list(ptr noundef %19, i16 noundef signext %20, ptr noundef %21, ptr noundef @dissect_link_desc_rsp)
  store i16 %22, ptr %5, align 2
  %23 = load i16, ptr %5, align 2
  ret i16 %23
}