; Function Attrs: null_pointer_is_valid sspstrong uwtable
define internal signext i16 @dissect_status_list(ptr noundef %0, i16 noundef signext %1, ptr noundef %2) #0 {
  %4 = load i32, ptr @hf_link_type, align 4
  %5 = sext i16 %1 to i32
  %6 = tail call ptr @proto_tree_add_item(ptr noundef %2, i32 noundef %4, ptr noundef %0, i32 noundef %5, i32 noundef 1, i32 noundef 0)
  %7 = add i16 %1, 1
  %8 = tail call fastcc signext i16 @dissect_link_addr(ptr noundef %0, i16 noundef signext %7, ptr noundef %2)
  %9 = sext i16 %8 to i32
  %10 = tail call zeroext i8 @tvb_get_uint8(ptr noundef %0, i32 noundef %9)
  %11 = add i16 %8, 1
  %.not.i = icmp eq i8 %10, 0
  br i1 %.not.i, label %dissect_mih_list.exit, label %.lr.ph.i

.lr.ph.i:                                         ; preds = %3, %.lr.ph.i
  %.012.i = phi i16 [ %17, %.lr.ph.i ], [ %11, %3 ]
  %.01011.i = phi i8 [ %18, %.lr.ph.i ], [ 0, %3 ]
  %12 = sext i16 %.012.i to i32
  %13 = tail call zeroext i8 @tvb_get_uint8(ptr noundef %0, i32 noundef %12)
  %.not.i26 = icmp eq i8 %13, 0
  %14 = add nsw i32 %12, 1
  %..i = select i1 %.not.i26, i32 1, i32 2
  %.12.i = select i1 %.not.i26, i16 2, i16 3
  %hf_op_mode.val.i = load i32, ptr @hf_op_mode, align 4
  %hf_channel_id.val.i = load i32, ptr @hf_channel_id, align 4
  %15 = select i1 %.not.i26, i32 %hf_op_mode.val.i, i32 %hf_channel_id.val.i
  %16 = tail call ptr @proto_tree_add_item(ptr noundef %2, i32 noundef %15, ptr noundef %0, i32 noundef %14, i32 noundef %..i, i32 noundef 0)
  %17 = add i16 %.12.i, %.012.i
  %18 = add nuw i8 %.01011.i, 1
  %exitcond.not.i = icmp eq i8 %18, %10
  br i1 %exitcond.not.i, label %dissect_mih_list.exit, label %.lr.ph.i, !llvm.loop !11

dissect_mih_list.exit:                            ; preds = %.lr.ph.i, %3
  %.0.lcssa.i = phi i16 [ %11, %3 ], [ %17, %.lr.ph.i ]
  %19 = sext i16 %.0.lcssa.i to i32
  %20 = tail call zeroext i8 @tvb_get_uint8(ptr noundef %0, i32 noundef %19)
  %21 = add i16 %.0.lcssa.i, 1
  %.not.i12 = icmp eq i8 %20, 0
  br i1 %.not.i12, label %dissect_mih_list.exit18, label %.lr.ph.i13

.lr.ph.i13:                                       ; preds = %dissect_mih_list.exit, %.lr.ph.i13
  %.012.i14 = phi i16 [ %22, %.lr.ph.i13 ], [ %21, %dissect_mih_list.exit ]
  %.01011.i15 = phi i8 [ %23, %.lr.ph.i13 ], [ 0, %dissect_mih_list.exit ]
  %22 = tail call fastcc signext i16 @dissect_link_param(ptr noundef %0, i16 noundef signext %.012.i14, ptr noundef %2)
  %23 = add nuw i8 %.01011.i15, 1
  %exitcond.not.i16 = icmp eq i8 %23, %20
  br i1 %exitcond.not.i16, label %dissect_mih_list.exit18, label %.lr.ph.i13, !llvm.loop !11

dissect_mih_list.exit18:                          ; preds = %.lr.ph.i13, %dissect_mih_list.exit
  %.0.lcssa.i17 = phi i16 [ %21, %dissect_mih_list.exit ], [ %22, %.lr.ph.i13 ]
  %24 = sext i16 %.0.lcssa.i17 to i32
  %25 = tail call zeroext i8 @tvb_get_uint8(ptr noundef %0, i32 noundef %24)
  %26 = add i16 %.0.lcssa.i17, 1
  %.not.i19 = icmp eq i8 %25, 0
  br i1 %.not.i19, label %dissect_mih_list.exit25, label %.lr.ph.i20

.lr.ph.i20:                                       ; preds = %dissect_mih_list.exit18, %.lr.ph.i20
  %.012.i21 = phi i16 [ %32, %.lr.ph.i20 ], [ %26, %dissect_mih_list.exit18 ]
  %.01011.i22 = phi i8 [ %33, %.lr.ph.i20 ], [ 0, %dissect_mih_list.exit18 ]
  %27 = sext i16 %.012.i21 to i32
  %28 = tail call zeroext i8 @tvb_get_uint8(ptr noundef %0, i32 noundef %27)
  %.not.i27 = icmp eq i8 %28, 0
  %29 = add nsw i32 %27, 1
  %hf_num_cos.val.i = load i32, ptr @hf_num_cos, align 4
  %hf_num_queue.val.i = load i32, ptr @hf_num_queue, align 4
  %30 = select i1 %.not.i27, i32 %hf_num_cos.val.i, i32 %hf_num_queue.val.i
  %31 = tail call ptr @proto_tree_add_item(ptr noundef %2, i32 noundef %30, ptr noundef %0, i32 noundef %29, i32 noundef 1, i32 noundef 0)
  %32 = add i16 %.012.i21, 2
  %33 = add nuw i8 %.01011.i22, 1
  %exitcond.not.i23 = icmp eq i8 %33, %25
  br i1 %exitcond.not.i23, label %dissect_mih_list.exit25, label %.lr.ph.i20, !llvm.loop !11

dissect_mih_list.exit25:                          ; preds = %.lr.ph.i20, %dissect_mih_list.exit18
  %.0.lcssa.i24 = phi i16 [ %26, %dissect_mih_list.exit18 ], [ %32, %.lr.ph.i20 ]
  ret i16 %.0.lcssa.i24
}